target datalayout = "e-m:e-p270:32:32-p271:32:32-p272:64:64-i64:64-i128:128-f80:128-n8:16:32:64-S128"
target triple = "x86_64-pc-linux-gnu"

@.str.53 = private unnamed_addr constant [82 x i8] c"It contains a dot-prefixed/invisible file, perhaps due to it being a mount point.\00", align 1
@.str.54 = private unnamed_addr constant [75 x i8] c"It contains a lost+found directory, perhaps due to it being a mount point.\00", align 1
@.str.55 = private unnamed_addr constant [116 x i8] c"Using a mount point directly as the data directory is not recommended.\0ACreate a subdirectory under the mount point.\00", align 1

; Function Attrs: nounwind uwtable
define dso_local void @warn_on_mount_point(i32 noundef %0) #0 {
  %2 = alloca i32, align 4
  store i32 %0, ptr %2, align 4
  %3 = load i32, ptr %2, align 4
  %4 = icmp eq i32 %3, 2
  br i1 %4, label %5, label %6

5:                                                ; preds = %1
  call void (i32, i32, ptr, ...) @pg_log_generic(i32 noundef 4, i32 noundef 1, ptr noundef @.str.53)
  br label %11

6:                                                ; preds = %1
  %7 = load i32, ptr %2, align 4
  %8 = icmp eq i32 %7, 3
  br i1 %8, label %9, label %10

9:                                                ; preds = %6
  call void (i32, i32, ptr, ...) @pg_log_generic(i32 noundef 4, i32 noundef 1, ptr noundef @.str.54)
  br label %10

10:                                               ; preds = %9, %6
  br label %11

11:                                               ; preds = %10, %5
  call void (i32, i32, ptr, ...) @pg_log_generic(i32 noundef 4, i32 noundef 2, ptr noundef @.str.55)
  ret void
}