; Function Attrs: nounwind uwtable
define dso_local void @warn_on_mount_point(i32 noundef %0) local_unnamed_addr #0 {
  switch i32 %0, label %3 [
    i32 2, label %.sink.split
    i32 3, label %2
  ]

2:                                                ; preds = %1
  br label %.sink.split

.sink.split:                                      ; preds = %1, %2
  %.str.54.sink = phi ptr [ @.str.54, %2 ], [ @.str.53, %1 ]
  tail call void (i32, i32, ptr, ...) @pg_log_generic(i32 noundef 4, i32 noundef 1, ptr noundef nonnull %.str.54.sink) #19
  br label %3

3:                                                ; preds = %.sink.split, %1
  tail call void (i32, i32, ptr, ...) @pg_log_generic(i32 noundef 4, i32 noundef 2, ptr noundef nonnull @.str.55) #19
  ret void
}